target datalayout = "e-m:e-p270:32:32-p271:32:32-p272:64:64-i64:64-i128:128-f80:128-n8:16:32:64-S128"
target triple = "x86_64-pc-linux-gnu"

%class.Node = type <{ ptr, ptr, ptr, i32, i32, i32, i32, i32, i32, i32, [4 x i8] }>

; Function Attrs: mustprogress nounwind uwtable
define linkonce_odr hidden noundef zeroext i1 @_ZNK4Node20is_predicated_vectorEv(ptr noundef nonnull align 8 dereferenceable(52) %0) #1 comdat align 2 {
  %2 = alloca ptr, align 8
  store ptr %0, ptr %2, align 8
  %3 = load ptr, ptr %2, align 8
  %4 = getelementptr inbounds %class.Node, ptr %3, i32 0, i32 9
  %5 = load i32, ptr %4, align 8
  %6 = and i32 %5, 16384
  %7 = icmp ne i32 %6, 0
  ret i1 %7
}

; Function Attrs: mustprogress nounwind uwtable
define linkonce_odr hidden noundef ptr @_ZNK4Node2inEj(ptr noundef nonnull align 8 dereferenceable(52) %0, i32 noundef %1) #1 comdat align 2 {
  %3 = alloca ptr, align 8
  %4 = alloca i32, align 4
  store ptr %0, ptr %3, align 8
  store i32 %1, ptr %4, align 4
  %5 = load ptr, ptr %3, align 8
  %6 = getelementptr inbounds %class.Node, ptr %5, i32 0, i32 1
  %7 = load ptr, ptr %6, align 8
  %8 = load i32, ptr %4, align 4
  %9 = zext i32 %8 to i64
  %10 = getelementptr inbounds ptr, ptr %7, i64 %9
  %11 = load ptr, ptr %10, align 8
  ret ptr %11
}

; Function Attrs: mustprogress nounwind uwtable
define hidden noundef ptr @_ZN7OrVNode8IdentityEP8PhaseGVN(ptr noundef nonnull align 8 dereferenceable(64) %0, ptr noundef %1) unnamed_addr #1 align 2 {
  %3 = alloca ptr, align 8
  %4 = alloca ptr, align 8
  %5 = alloca ptr, align 8
  store ptr %0, ptr %4, align 8
  store ptr %1, ptr %5, align 8
  %6 = load ptr, ptr %4, align 8
  %7 = call noundef ptr @_ZNK4Node2inEj(ptr noundef nonnull align 8 dereferenceable(52) %6, i32 noundef 1)
  %8 = call noundef zeroext i1 @_ZN10VectorNode18is_all_ones_vectorEP4Node(ptr noundef %7)
  br i1 %8, label %9, label %11

9:                                                ; preds = %2
  %10 = call noundef ptr @_ZNK4Node2inEj(ptr noundef nonnull align 8 dereferenceable(52) %6, i32 noundef 1)
  store ptr %10, ptr %3, align 8
  br label %37

11:                                               ; preds = %2
  %12 = call noundef ptr @_ZNK4Node2inEj(ptr noundef nonnull align 8 dereferenceable(52) %6, i32 noundef 2)
  %13 = call noundef zeroext i1 @_ZN10VectorNode19is_all_zeros_vectorEP4Node(ptr noundef %12)
  br i1 %13, label %14, label %16

14:                                               ; preds = %11
  %15 = call noundef ptr @_ZNK4Node2inEj(ptr noundef nonnull align 8 dereferenceable(52) %6, i32 noundef 1)
  store ptr %15, ptr %3, align 8
  br label %37

16:                                               ; preds = %11
  %17 = call noundef zeroext i1 @_ZNK4Node20is_predicated_vectorEv(ptr noundef nonnull align 8 dereferenceable(52) %6)
  br i1 %17, label %29, label %18

18:                                               ; preds = %16
  %19 = call noundef ptr @_ZNK4Node2inEj(ptr noundef nonnull align 8 dereferenceable(52) %6, i32 noundef 2)
  %20 = call noundef zeroext i1 @_ZN10VectorNode18is_all_ones_vectorEP4Node(ptr noundef %19)
  br i1 %20, label %21, label %23

21:                                               ; preds = %18
  %22 = call noundef ptr @_ZNK4Node2inEj(ptr noundef nonnull align 8 dereferenceable(52) %6, i32 noundef 2)
  store ptr %22, ptr %3, align 8
  br label %37

23:                                               ; preds = %18
  %24 = call noundef ptr @_ZNK4Node2inEj(ptr noundef nonnull align 8 dereferenceable(52) %6, i32 noundef 1)
  %25 = call noundef zeroext i1 @_ZN10VectorNode19is_all_zeros_vectorEP4Node(ptr noundef %24)
  br i1 %25, label %26, label %28

26:                                               ; preds = %23
  %27 = call noundef ptr @_ZNK4Node2inEj(ptr noundef nonnull align 8 dereferenceable(52) %6, i32 noundef 2)
  store ptr %27, ptr %3, align 8
  br label %37

28:                                               ; preds = %23
  br label %29

29:                                               ; preds = %28, %16
  %30 = call noundef ptr @_ZNK4Node2inEj(ptr noundef nonnull align 8 dereferenceable(52) %6, i32 noundef 1)
  %31 = call noundef ptr @_ZNK4Node2inEj(ptr noundef nonnull align 8 dereferenceable(52) %6, i32 noundef 2)
  %32 = icmp eq ptr %30, %31
  br i1 %32, label %33, label %35

33:                                               ; preds = %29
  %34 = call noundef ptr @_ZNK4Node2inEj(ptr noundef nonnull align 8 dereferenceable(52) %6, i32 noundef 1)
  store ptr %34, ptr %3, align 8
  br label %37

35:                                               ; preds = %29
  %36 = call noundef ptr @_ZL26redundant_logical_identityP4Node(ptr noundef %6)
  store ptr %36, ptr %3, align 8
  br label %37

37:                                               ; preds = %35, %33, %26, %21, %14, %9
  %38 = load ptr, ptr %3, align 8
  ret ptr %38
}