; Function Attrs: mustprogress nounwind uwtable
define hidden noundef ptr @_ZN7OrVNode8IdentityEP8PhaseGVN(ptr noundef nonnull align 8 dereferenceable(64) %0, ptr nocapture noundef readnone %1) unnamed_addr #1 align 2 {
  %3 = getelementptr inbounds i8, ptr %0, i64 8
  %4 = load ptr, ptr %3, align 8
  %5 = getelementptr inbounds i8, ptr %4, i64 8
  %6 = load ptr, ptr %5, align 8
  %7 = tail call noundef zeroext i1 @_ZN10VectorNode18is_all_ones_vectorEP4Node(ptr noundef %6)
  %8 = load ptr, ptr %3, align 8
  br i1 %7, label %9, label %12

9:                                                ; preds = %2
  %10 = getelementptr inbounds i8, ptr %8, i64 8
  %11 = load ptr, ptr %10, align 8
  br label %50

12:                                               ; preds = %2
  %13 = getelementptr inbounds i8, ptr %8, i64 16
  %14 = load ptr, ptr %13, align 8
  %15 = tail call noundef zeroext i1 @_ZN10VectorNode19is_all_zeros_vectorEP4Node(ptr noundef %14)
  br i1 %15, label %16, label %20

16:                                               ; preds = %12
  %17 = load ptr, ptr %3, align 8
  %18 = getelementptr inbounds i8, ptr %17, i64 8
  %19 = load ptr, ptr %18, align 8
  br label %50

20:                                               ; preds = %12
  %21 = getelementptr inbounds i8, ptr %0, i64 48
  %22 = load i32, ptr %21, align 8
  %23 = and i32 %22, 16384
  %.not = icmp eq i32 %23, 0
  br i1 %.not, label %24, label %41

24:                                               ; preds = %20
  %25 = load ptr, ptr %3, align 8
  %26 = getelementptr inbounds i8, ptr %25, i64 16
  %27 = load ptr, ptr %26, align 8
  %28 = tail call noundef zeroext i1 @_ZN10VectorNode18is_all_ones_vectorEP4Node(ptr noundef %27)
  %29 = load ptr, ptr %3, align 8
  br i1 %28, label %30, label %33

30:                                               ; preds = %24
  %31 = getelementptr inbounds i8, ptr %29, i64 16
  %32 = load ptr, ptr %31, align 8
  br label %50

33:                                               ; preds = %24
  %34 = getelementptr inbounds i8, ptr %29, i64 8
  %35 = load ptr, ptr %34, align 8
  %36 = tail call noundef zeroext i1 @_ZN10VectorNode19is_all_zeros_vectorEP4Node(ptr noundef %35)
  br i1 %36, label %37, label %41

37:                                               ; preds = %33
  %38 = load ptr, ptr %3, align 8
  %39 = getelementptr inbounds i8, ptr %38, i64 16
  %40 = load ptr, ptr %39, align 8
  br label %50

41:                                               ; preds = %33, %20
  %42 = load ptr, ptr %3, align 8
  %43 = getelementptr inbounds i8, ptr %42, i64 8
  %44 = load ptr, ptr %43, align 8
  %45 = getelementptr inbounds i8, ptr %42, i64 16
  %46 = load ptr, ptr %45, align 8
  %47 = icmp eq ptr %44, %46
  br i1 %47, label %50, label %48

48:                                               ; preds = %41
  %49 = tail call fastcc noundef ptr @_ZL26redundant_logical_identityP4Node(ptr noundef nonnull %0)
  br label %50

50:                                               ; preds = %41, %48, %37, %30, %16, %9
  %.0 = phi ptr [ %11, %9 ], [ %19, %16 ], [ %49, %48 ], [ %32, %30 ], [ %40, %37 ], [ %44, %41 ]
  ret ptr %.0
}